target datalayout = "e-m:e-p270:32:32-p271:32:32-p272:64:64-i64:64-i128:128-f80:128-n8:16:32:64-S128"
target triple = "x86_64-pc-linux-gnu"

%union.anon = type { i32 }
%struct.BITv07_DStream_t = type { i64, i32, ptr, ptr }

@__const.MEM_isLittleEndian.one = private unnamed_addr constant %union.anon { i32 1 }, align 4

; Function Attrs: inlinehint nounwind uwtable
define internal i64 @MEM_swap64(i64 noundef %0) #2 {
  %2 = alloca i64, align 8
  store i64 %0, ptr %2, align 8, !tbaa !3
  %3 = load i64, ptr %2, align 8, !tbaa !3
  %4 = shl i64 %3, 56
  %5 = and i64 %4, -72057594037927936
  %6 = load i64, ptr %2, align 8, !tbaa !3
  %7 = shl i64 %6, 40
  %8 = and i64 %7, 71776119061217280
  %9 = or i64 %5, %8
  %10 = load i64, ptr %2, align 8, !tbaa !3
  %11 = shl i64 %10, 24
  %12 = and i64 %11, 280375465082880
  %13 = or i64 %9, %12
  %14 = load i64, ptr %2, align 8, !tbaa !3
  %15 = shl i64 %14, 8
  %16 = and i64 %15, 1095216660480
  %17 = or i64 %13, %16
  %18 = load i64, ptr %2, align 8, !tbaa !3
  %19 = lshr i64 %18, 8
  %20 = and i64 %19, 4278190080
  %21 = or i64 %17, %20
  %22 = load i64, ptr %2, align 8, !tbaa !3
  %23 = lshr i64 %22, 24
  %24 = and i64 %23, 16711680
  %25 = or i64 %21, %24
  %26 = load i64, ptr %2, align 8, !tbaa !3
  %27 = lshr i64 %26, 40
  %28 = and i64 %27, 65280
  %29 = or i64 %25, %28
  %30 = load i64, ptr %2, align 8, !tbaa !3
  %31 = lshr i64 %30, 56
  %32 = and i64 %31, 255
  %33 = or i64 %29, %32
  ret i64 %33
}

; Function Attrs: inlinehint nounwind uwtable
define internal i64 @MEM_read64(ptr noundef %0) #2 {
  %2 = alloca ptr, align 8
  %3 = alloca i64, align 8
  store ptr %0, ptr %2, align 8, !tbaa !12
  call void @llvm.lifetime.start.p0(i64 8, ptr %3) #11
  %4 = load ptr, ptr %2, align 8, !tbaa !12
  call void @llvm.memcpy.p0.p0.i64(ptr align 8 %3, ptr align 1 %4, i64 8, i1 false)
  %5 = load i64, ptr %3, align 8, !tbaa !3
  call void @llvm.lifetime.end.p0(i64 8, ptr %3) #11
  ret i64 %5
}

; Function Attrs: inlinehint nounwind uwtable
define internal i32 @MEM_swap32(i32 noundef %0) #2 {
  %2 = alloca i32, align 4
  store i32 %0, ptr %2, align 4, !tbaa !15
  %3 = load i32, ptr %2, align 4, !tbaa !15
  %4 = shl i32 %3, 24
  %5 = and i32 %4, -16777216
  %6 = load i32, ptr %2, align 4, !tbaa !15
  %7 = shl i32 %6, 8
  %8 = and i32 %7, 16711680
  %9 = or i32 %5, %8
  %10 = load i32, ptr %2, align 4, !tbaa !15
  %11 = lshr i32 %10, 8
  %12 = and i32 %11, 65280
  %13 = or i32 %9, %12
  %14 = load i32, ptr %2, align 4, !tbaa !15
  %15 = lshr i32 %14, 24
  %16 = and i32 %15, 255
  %17 = or i32 %13, %16
  ret i32 %17
}

; Function Attrs: inlinehint nounwind uwtable
define internal i32 @MEM_read32(ptr noundef %0) #2 {
  %2 = alloca ptr, align 8
  %3 = alloca i32, align 4
  store ptr %0, ptr %2, align 8, !tbaa !12
  call void @llvm.lifetime.start.p0(i64 4, ptr %3) #11
  %4 = load ptr, ptr %2, align 8, !tbaa !12
  call void @llvm.memcpy.p0.p0.i64(ptr align 4 %3, ptr align 1 %4, i64 4, i1 false)
  %5 = load i32, ptr %3, align 4, !tbaa !15
  call void @llvm.lifetime.end.p0(i64 4, ptr %3) #11
  ret i32 %5
}

; Function Attrs: inlinehint nounwind uwtable
define internal i32 @MEM_isLittleEndian() #2 {
  %1 = alloca %union.anon, align 4
  call void @llvm.lifetime.start.p0(i64 4, ptr %1) #11
  call void @llvm.memcpy.p0.p0.i64(ptr align 4 %1, ptr align 4 @__const.MEM_isLittleEndian.one, i64 4, i1 false)
  %2 = getelementptr inbounds [4 x i8], ptr %1, i64 0, i64 0
  %3 = load i8, ptr %2, align 4, !tbaa !25
  %4 = zext i8 %3 to i32
  call void @llvm.lifetime.end.p0(i64 4, ptr %1) #11
  ret i32 %4
}

; Function Attrs: inlinehint nounwind uwtable
define internal i64 @MEM_readLE64(ptr noundef %0) #2 {
  %2 = alloca i64, align 8
  %3 = alloca ptr, align 8
  store ptr %0, ptr %3, align 8, !tbaa !12
  %4 = call i32 @MEM_isLittleEndian()
  %5 = icmp ne i32 %4, 0
  br i1 %5, label %6, label %9

6:                                                ; preds = %1
  %7 = load ptr, ptr %3, align 8, !tbaa !12
  %8 = call i64 @MEM_read64(ptr noundef %7)
  store i64 %8, ptr %2, align 8
  br label %13

9:                                                ; preds = %1
  %10 = load ptr, ptr %3, align 8, !tbaa !12
  %11 = call i64 @MEM_read64(ptr noundef %10)
  %12 = call i64 @MEM_swap64(i64 noundef %11)
  store i64 %12, ptr %2, align 8
  br label %13

13:                                               ; preds = %9, %6
  %14 = load i64, ptr %2, align 8
  ret i64 %14
}

; Function Attrs: inlinehint nounwind uwtable
define internal i32 @MEM_readLE32(ptr noundef %0) #2 {
  %2 = alloca i32, align 4
  %3 = alloca ptr, align 8
  store ptr %0, ptr %3, align 8, !tbaa !12
  %4 = call i32 @MEM_isLittleEndian()
  %5 = icmp ne i32 %4, 0
  br i1 %5, label %6, label %9

6:                                                ; preds = %1
  %7 = load ptr, ptr %3, align 8, !tbaa !12
  %8 = call i32 @MEM_read32(ptr noundef %7)
  store i32 %8, ptr %2, align 4
  br label %13

9:                                                ; preds = %1
  %10 = load ptr, ptr %3, align 8, !tbaa !12
  %11 = call i32 @MEM_read32(ptr noundef %10)
  %12 = call i32 @MEM_swap32(i32 noundef %11)
  store i32 %12, ptr %2, align 4
  br label %13

13:                                               ; preds = %9, %6
  %14 = load i32, ptr %2, align 4
  ret i32 %14
}

; Function Attrs: inlinehint nounwind uwtable
define internal i32 @MEM_32bits() #2 {
  ret i32 0
}

; Function Attrs: inlinehint nounwind uwtable
define internal i64 @MEM_readLEST(ptr noundef %0) #2 {
  %2 = alloca i64, align 8
  %3 = alloca ptr, align 8
  store ptr %0, ptr %3, align 8, !tbaa !12
  %4 = call i32 @MEM_32bits()
  %5 = icmp ne i32 %4, 0
  br i1 %5, label %6, label %10

6:                                                ; preds = %1
  %7 = load ptr, ptr %3, align 8, !tbaa !12
  %8 = call i32 @MEM_readLE32(ptr noundef %7)
  %9 = zext i32 %8 to i64
  store i64 %9, ptr %2, align 8
  br label %13

10:                                               ; preds = %1
  %11 = load ptr, ptr %3, align 8, !tbaa !12
  %12 = call i64 @MEM_readLE64(ptr noundef %11)
  store i64 %12, ptr %2, align 8
  br label %13

13:                                               ; preds = %10, %6
  %14 = load i64, ptr %2, align 8
  ret i64 %14
}

; Function Attrs: inlinehint nounwind uwtable
define internal i32 @BITv07_reloadDStream(ptr noundef %0) #2 {
  %2 = alloca i32, align 4
  %3 = alloca ptr, align 8
  %4 = alloca i32, align 4
  %5 = alloca i32, align 4
  store ptr %0, ptr %3, align 8, !tbaa !12
  %6 = load ptr, ptr %3, align 8, !tbaa !12
  %7 = getelementptr inbounds nuw %struct.BITv07_DStream_t, ptr %6, i32 0, i32 1
  %8 = load i32, ptr %7, align 8, !tbaa !132
  %9 = zext i32 %8 to i64
  %10 = icmp ugt i64 %9, 64
  br i1 %10, label %11, label %12

11:                                               ; preds = %1
  store i32 3, ptr %2, align 4
  br label %106

12:                                               ; preds = %1
  %13 = load ptr, ptr %3, align 8, !tbaa !12
  %14 = getelementptr inbounds nuw %struct.BITv07_DStream_t, ptr %13, i32 0, i32 2
  %15 = load ptr, ptr %14, align 8, !tbaa !130
  %16 = load ptr, ptr %3, align 8, !tbaa !12
  %17 = getelementptr inbounds nuw %struct.BITv07_DStream_t, ptr %16, i32 0, i32 3
  %18 = load ptr, ptr %17, align 8, !tbaa !128
  %19 = getelementptr inbounds nuw i8, ptr %18, i64 8
  %20 = icmp uge ptr %15, %19
  br i1 %20, label %21, label %42

21:                                               ; preds = %12
  %22 = load ptr, ptr %3, align 8, !tbaa !12
  %23 = getelementptr inbounds nuw %struct.BITv07_DStream_t, ptr %22, i32 0, i32 1
  %24 = load i32, ptr %23, align 8, !tbaa !132
  %25 = lshr i32 %24, 3
  %26 = load ptr, ptr %3, align 8, !tbaa !12
  %27 = getelementptr inbounds nuw %struct.BITv07_DStream_t, ptr %26, i32 0, i32 2
  %28 = load ptr, ptr %27, align 8, !tbaa !130
  %29 = zext i32 %25 to i64
  %30 = sub i64 0, %29
  %31 = getelementptr inbounds i8, ptr %28, i64 %30
  store ptr %31, ptr %27, align 8, !tbaa !130
  %32 = load ptr, ptr %3, align 8, !tbaa !12
  %33 = getelementptr inbounds nuw %struct.BITv07_DStream_t, ptr %32, i32 0, i32 1
  %34 = load i32, ptr %33, align 8, !tbaa !132
  %35 = and i32 %34, 7
  store i32 %35, ptr %33, align 8, !tbaa !132
  %36 = load ptr, ptr %3, align 8, !tbaa !12
  %37 = getelementptr inbounds nuw %struct.BITv07_DStream_t, ptr %36, i32 0, i32 2
  %38 = load ptr, ptr %37, align 8, !tbaa !130
  %39 = call i64 @MEM_readLEST(ptr noundef %38)
  %40 = load ptr, ptr %3, align 8, !tbaa !12
  %41 = getelementptr inbounds nuw %struct.BITv07_DStream_t, ptr %40, i32 0, i32 0
  store i64 %39, ptr %41, align 8, !tbaa !131
  store i32 0, ptr %2, align 4
  br label %106

42:                                               ; preds = %12
  %43 = load ptr, ptr %3, align 8, !tbaa !12
  %44 = getelementptr inbounds nuw %struct.BITv07_DStream_t, ptr %43, i32 0, i32 2
  %45 = load ptr, ptr %44, align 8, !tbaa !130
  %46 = load ptr, ptr %3, align 8, !tbaa !12
  %47 = getelementptr inbounds nuw %struct.BITv07_DStream_t, ptr %46, i32 0, i32 3
  %48 = load ptr, ptr %47, align 8, !tbaa !128
  %49 = icmp eq ptr %45, %48
  br i1 %49, label %50, label %58

50:                                               ; preds = %42
  %51 = load ptr, ptr %3, align 8, !tbaa !12
  %52 = getelementptr inbounds nuw %struct.BITv07_DStream_t, ptr %51, i32 0, i32 1
  %53 = load i32, ptr %52, align 8, !tbaa !132
  %54 = zext i32 %53 to i64
  %55 = icmp ult i64 %54, 64
  br i1 %55, label %56, label %57

56:                                               ; preds = %50
  store i32 1, ptr %2, align 4
  br label %106

57:                                               ; preds = %50
  store i32 2, ptr %2, align 4
  br label %106

58:                                               ; preds = %42
  call void @llvm.lifetime.start.p0(i64 4, ptr %4) #11
  %59 = load ptr, ptr %3, align 8, !tbaa !12
  %60 = getelementptr inbounds nuw %struct.BITv07_DStream_t, ptr %59, i32 0, i32 1
  %61 = load i32, ptr %60, align 8, !tbaa !132
  %62 = lshr i32 %61, 3
  store i32 %62, ptr %4, align 4, !tbaa !15
  call void @llvm.lifetime.start.p0(i64 4, ptr %5) #11
  store i32 0, ptr %5, align 4, !tbaa !15
  %63 = load ptr, ptr %3, align 8, !tbaa !12
  %64 = getelementptr inbounds nuw %struct.BITv07_DStream_t, ptr %63, i32 0, i32 2
  %65 = load ptr, ptr %64, align 8, !tbaa !130
  %66 = load i32, ptr %4, align 4, !tbaa !15
  %67 = zext i32 %66 to i64
  %68 = sub i64 0, %67
  %69 = getelementptr inbounds i8, ptr %65, i64 %68
  %70 = load ptr, ptr %3, align 8, !tbaa !12
  %71 = getelementptr inbounds nuw %struct.BITv07_DStream_t, ptr %70, i32 0, i32 3
  %72 = load ptr, ptr %71, align 8, !tbaa !128
  %73 = icmp ult ptr %69, %72
  br i1 %73, label %74, label %85

74:                                               ; preds = %58
  %75 = load ptr, ptr %3, align 8, !tbaa !12
  %76 = getelementptr inbounds nuw %struct.BITv07_DStream_t, ptr %75, i32 0, i32 2
  %77 = load ptr, ptr %76, align 8, !tbaa !130
  %78 = load ptr, ptr %3, align 8, !tbaa !12
  %79 = getelementptr inbounds nuw %struct.BITv07_DStream_t, ptr %78, i32 0, i32 3
  %80 = load ptr, ptr %79, align 8, !tbaa !128
  %81 = ptrtoint ptr %77 to i64
  %82 = ptrtoint ptr %80 to i64
  %83 = sub i64 %81, %82
  %84 = trunc i64 %83 to i32
  store i32 %84, ptr %4, align 4, !tbaa !15
  store i32 1, ptr %5, align 4, !tbaa !15
  br label %85

85:                                               ; preds = %74, %58
  %86 = load i32, ptr %4, align 4, !tbaa !15
  %87 = load ptr, ptr %3, align 8, !tbaa !12
  %88 = getelementptr inbounds nuw %struct.BITv07_DStream_t, ptr %87, i32 0, i32 2
  %89 = load ptr, ptr %88, align 8, !tbaa !130
  %90 = zext i32 %86 to i64
  %91 = sub i64 0, %90
  %92 = getelementptr inbounds i8, ptr %89, i64 %91
  store ptr %92, ptr %88, align 8, !tbaa !130
  %93 = load i32, ptr %4, align 4, !tbaa !15
  %94 = mul i32 %93, 8
  %95 = load ptr, ptr %3, align 8, !tbaa !12
  %96 = getelementptr inbounds nuw %struct.BITv07_DStream_t, ptr %95, i32 0, i32 1
  %97 = load i32, ptr %96, align 8, !tbaa !132
  %98 = sub i32 %97, %94
  store i32 %98, ptr %96, align 8, !tbaa !132
  %99 = load ptr, ptr %3, align 8, !tbaa !12
  %100 = getelementptr inbounds nuw %struct.BITv07_DStream_t, ptr %99, i32 0, i32 2
  %101 = load ptr, ptr %100, align 8, !tbaa !130
  %102 = call i64 @MEM_readLEST(ptr noundef %101)
  %103 = load ptr, ptr %3, align 8, !tbaa !12
  %104 = getelementptr inbounds nuw %struct.BITv07_DStream_t, ptr %103, i32 0, i32 0
  store i64 %102, ptr %104, align 8, !tbaa !131
  %105 = load i32, ptr %5, align 4, !tbaa !15
  store i32 %105, ptr %2, align 4
  call void @llvm.lifetime.end.p0(i64 4, ptr %5) #11
  call void @llvm.lifetime.end.p0(i64 4, ptr %4) #11
  br label %106

106:                                              ; preds = %85, %57, %56, %21, %11
  %107 = load i32, ptr %2, align 4
  ret i32 %107
}